; Function Attrs: nounwind uwtable
define hidden void @mi_heap_destroy(ptr noundef %0) local_unnamed_addr #0 {
  %2 = icmp ne ptr %0, null
  %3 = icmp ne ptr %0, @_mi_heap_empty
  %or.cond = and i1 %2, %3
  br i1 %or.cond, label %4, label %mi_heap_free.exit

4:                                                ; preds = %1
  %5 = getelementptr inbounds nuw i8, ptr %0, i64 224
  %6 = load i8, ptr %5, align 8, !tbaa !28, !range !29, !noundef !30
  %7 = trunc nuw i8 %6 to i1
  br i1 %7, label %9, label %8

8:                                                ; preds = %4
  tail call void (ptr, ...) @_mi_warning_message(ptr noundef nonnull @.str, ptr noundef nonnull %0) #11
  tail call void @mi_heap_delete(ptr noundef nonnull %0) #10
  br label %mi_heap_free.exit

9:                                                ; preds = %4
  %10 = getelementptr inbounds nuw i8, ptr %0, i64 192
  %11 = load i64, ptr %10, align 8, !tbaa !31
  %12 = icmp eq i64 %11, 0
  br i1 %12, label %_mi_heap_destroy_pages.exit, label %.preheader.i.i

.preheader.i.i:                                   ; preds = %9
  %13 = getelementptr inbounds nuw i8, ptr %0, i64 1264
  br label %14

14:                                               ; preds = %.critedge.i.i, %.preheader.i.i
  %.02229.i.i = phi i64 [ 0, %.preheader.i.i ], [ %22, %.critedge.i.i ]
  %15 = getelementptr inbounds nuw [75 x %struct.mi_page_queue_s], ptr %13, i64 0, i64 %.02229.i.i
  %16 = load ptr, ptr %15, align 8, !tbaa !32
  %.not.i2.i = icmp eq ptr %16, null
  br i1 %.not.i2.i, label %.critedge.i.i, label %.lr.ph.i

.lr.ph.i:                                         ; preds = %14, %.lr.ph.i
  %.020.i3.i = phi ptr [ %18, %.lr.ph.i ], [ %16, %14 ]
  %17 = getelementptr inbounds nuw i8, ptr %.020.i3.i, i64 64
  %18 = load ptr, ptr %17, align 8, !tbaa !33
  tail call void @_mi_page_use_delayed_free(ptr noundef nonnull %.020.i3.i, i32 noundef 3, i1 noundef zeroext false) #11
  %19 = getelementptr inbounds nuw i8, ptr %.020.i3.i, i64 24
  store i16 0, ptr %19, align 8, !tbaa !41
  tail call void @llvm.memset.p0.i64(ptr noundef nonnull align 8 dereferenceable(16) %17, i8 0, i64 16, i1 false)
  %20 = load ptr, ptr %0, align 8, !tbaa !14
  %21 = getelementptr inbounds nuw i8, ptr %20, i64 32
  tail call void @_mi_segment_page_free(ptr noundef nonnull %.020.i3.i, i1 noundef zeroext false, ptr noundef nonnull %21) #11
  %.not.i.i = icmp eq ptr %18, null
  br i1 %.not.i.i, label %.critedge.i.i, label %.lr.ph.i, !llvm.loop !38

.critedge.i.i:                                    ; preds = %.lr.ph.i, %14
  %22 = add nuw nsw i64 %.02229.i.i, 1
  %exitcond.i.i = icmp eq i64 %22, 75
  br i1 %exitcond.i.i, label %_mi_heap_destroy_pages.exit, label %14, !llvm.loop !40

_mi_heap_destroy_pages.exit:                      ; preds = %.critedge.i.i, %9
  %23 = getelementptr inbounds nuw i8, ptr %0, i64 232
  tail call void @llvm.memset.p0.i64(ptr noundef nonnull align 8 dereferenceable(1032) %23, i8 0, i64 1032, i1 false)
  %24 = getelementptr inbounds nuw i8, ptr %0, i64 1264
  call void @llvm.assume(i1 true) [ "align"(ptr %24, i64 8) ]
  call void @llvm.assume(i1 true) [ "align"(ptr getelementptr inbounds nuw (i8, ptr @_mi_heap_empty, i64 1264), i64 8) ]
  tail call void @llvm.memcpy.p0.p0.i64(ptr noundef nonnull align 8 dereferenceable(1800) %24, ptr noundef nonnull readonly align 8 dereferenceable(1800) getelementptr inbounds nuw (i8, ptr @_mi_heap_empty, i64 1264), i64 range(i64 1800, 3065) 1800, i1 false)
  %25 = getelementptr inbounds nuw i8, ptr %0, i64 8
  store atomic ptr null, ptr %25 seq_cst, align 8, !tbaa !50
  store i64 0, ptr %10, align 8, !tbaa !31
  %26 = load ptr, ptr %0, align 8, !tbaa !14
  %27 = getelementptr inbounds nuw i8, ptr %26, i64 16
  %28 = load ptr, ptr %27, align 8, !tbaa !15
  %29 = icmp eq ptr %28, %0
  br i1 %29, label %mi_heap_free.exit, label %30

30:                                               ; preds = %_mi_heap_destroy_pages.exit
  %31 = tail call align 8 ptr @llvm.threadlocal.address.p0(ptr align 8 @_mi_heap_default)
  %32 = load ptr, ptr %31, align 8, !tbaa !42
  %33 = icmp eq ptr %0, %32
  br i1 %33, label %34, label %35

34:                                               ; preds = %30
  tail call void @_mi_heap_set_default_direct(ptr noundef %28) #11
  %.pre.i = load ptr, ptr %0, align 8, !tbaa !14
  br label %35

35:                                               ; preds = %34, %30
  %36 = phi ptr [ %.pre.i, %34 ], [ %26, %30 ]
  %37 = getelementptr inbounds nuw i8, ptr %36, i64 24
  br label %38

38:                                               ; preds = %38, %35
  %.019.i = phi ptr [ null, %35 ], [ %.0.i, %38 ]
  %.0.in.i = phi ptr [ %37, %35 ], [ %42, %38 ]
  %.0.i = load ptr, ptr %.0.in.i, align 8, !tbaa !42
  %39 = icmp ne ptr %.0.i, %0
  %40 = icmp ne ptr %.0.i, null
  %41 = and i1 %39, %40
  %42 = getelementptr inbounds nuw i8, ptr %.0.i, i64 216
  br i1 %41, label %38, label %43, !llvm.loop !51

43:                                               ; preds = %38
  %44 = icmp eq ptr %.0.i, %0
  br i1 %44, label %45, label %51

45:                                               ; preds = %43
  %.not.i = icmp eq ptr %.019.i, null
  %46 = getelementptr inbounds nuw i8, ptr %0, i64 216
  %47 = load ptr, ptr %46, align 8, !tbaa !48
  br i1 %.not.i, label %50, label %48

48:                                               ; preds = %45
  %49 = getelementptr inbounds nuw i8, ptr %.019.i, i64 216
  store ptr %47, ptr %49, align 8, !tbaa !48
  br label %51

50:                                               ; preds = %45
  store ptr %47, ptr %37, align 8, !tbaa !47
  br label %51

51:                                               ; preds = %50, %48, %43
  tail call void @mi_free(ptr noundef nonnull %0) #11
  br label %mi_heap_free.exit

mi_heap_free.exit:                                ; preds = %51, %_mi_heap_destroy_pages.exit, %1, %8
  ret void
}